; Function Attrs: mustprogress uwtable
define void @_ZN32pxrInternal_v0_24__pxrReserved__13UsdStageCache12SetDebugNameERKNSt7__cxx1112basic_stringIcSt11char_traitsIcESaIcEEE(ptr noundef nonnull align 8 dereferenceable(48) %0, ptr noundef nonnull align 8 dereferenceable(32) %1) local_unnamed_addr #2 align 2 personality ptr @__gxx_personality_v0 {
  %3 = getelementptr inbounds nuw i8, ptr %0, i64 8
  %4 = tail call noundef i32 @pthread_mutex_lock(ptr noundef nonnull %3) #18
  %.not.i.i = icmp eq i32 %4, 0
  br i1 %.not.i.i, label %_ZNSt10lock_guardISt5mutexEC2ERS0_.exit, label %5

5:                                                ; preds = %2
  tail call void @_ZSt20__throw_system_errori(i32 noundef %4) #19
  unreachable

_ZNSt10lock_guardISt5mutexEC2ERS0_.exit:          ; preds = %2
  %6 = load ptr, ptr %0, align 8
  %7 = getelementptr inbounds nuw i8, ptr %6, i64 192
  %8 = invoke noundef nonnull align 8 dereferenceable(32) ptr @_ZNSt7__cxx1112basic_stringIcSt11char_traitsIcESaIcEEaSERKS4_(ptr noundef nonnull align 8 dereferenceable(32) %7, ptr noundef nonnull align 8 dereferenceable(32) %1)
          to label %9 unwind label %11

9:                                                ; preds = %_ZNSt10lock_guardISt5mutexEC2ERS0_.exit
  %10 = tail call noundef i32 @pthread_mutex_unlock(ptr noundef nonnull %3) #18
  ret void

11:                                               ; preds = %_ZNSt10lock_guardISt5mutexEC2ERS0_.exit
  %12 = landingpad { ptr, i32 }
          cleanup
  %13 = tail call noundef i32 @pthread_mutex_unlock(ptr noundef nonnull %3) #18
  resume { ptr, i32 } %12
}